(lp0
(I1
S'09/25/2015 06:23:01 PM'
p1
F42.2941
F-71.3019
tp2
a(I1
S'09/25/2015 06:23:10 PM'
p3
F42.29416
F-71.30194
tp4
a(I1
S'09/25/2015 06:24:12 PM'
p5
F42.29404
F-71.30106
tp6
a(I1
S'09/25/2015 06:24:37 PM'
p7
F42.29368
F-71.30111
tp8
a(I1
S'09/25/2015 06:25:42 PM'
p9
F42.294
F-71.3008
tp10
a(I1
S'09/25/2015 06:26:42 PM'
p11
F42.29168
F-71.30237
tp12
a(I1
S'09/25/2015 06:28:42 PM'
p13
F42.28266
F-71.28911
tp14
a(I1
S'09/25/2015 06:29:42 PM'
p15
F42.27411
F-71.28737
tp16
a(I1
S'09/25/2015 06:30:55 PM'
p17
F42.26958
F-71.27752
tp18
a(I1
S'09/25/2015 06:31:57 PM'
p19
F42.26529
F-71.26793
tp20
a(I1
S'09/25/2015 06:33:42 PM'
p21
F42.25189
F-71.27429
tp22
a(I1
S'09/25/2015 06:34:23 PM'
p23
F42.25155
F-71.2747
tp24
a(I1
S'09/25/2015 06:35:24 PM'
p25
F42.25036
F-71.27553
tp26
a(I1
S'09/25/2015 06:37:24 PM'
p27
F42.24733
F-71.27838
tp28
a(I1
S'09/25/2015 06:39:26 PM'
p29
F42.24079
F-71.27712
tp30
a(I1
S'09/25/2015 06:40:28 PM'
p31
F42.23173
F-71.2726
tp32
a(I1
S'09/25/2015 06:42:28 PM'
p33
F42.21638
F-71.26399
tp34
a(I1
S'09/25/2015 06:44:24 PM'
p35
F42.21448
F-71.24524
tp36
a(I1
S'09/25/2015 06:45:25 PM'
p37
F42.2176
F-71.2359
tp38
a(I1
S'09/25/2015 06:47:16 PM'
p39
F42.22381
F-71.22346
tp40
a(I1
S'09/25/2015 06:48:17 PM'
p41
F42.22442
F-71.22235
tp42
a(I1
S'09/25/2015 06:50:19 PM'
p43
F42.2242
F-71.22202
tp44
a(I1
S'09/25/2015 06:52:15 PM'
p45
F42.22413
F-71.22269
tp46
a(I1
S'09/25/2015 06:53:16 PM'
p47
F42.21895
F-71.22353
tp48
a(I1
S'09/25/2015 06:54:17 PM'
p49
F42.21204
F-71.2307
tp50
a(I1
S'09/25/2015 06:55:19 PM'
p51
F42.20628
F-71.23937
tp52
a(I1
S'09/25/2015 06:57:17 PM'
p53
F42.20365
F-71.23799
tp54
a(I1
S'09/25/2015 06:58:30 PM'
p55
F42.20424
F-71.23804
tp56
a(I1
S'09/25/2015 06:59:35 PM'
p57
F42.20475
F-71.23858
tp58
a(I1
S'09/25/2015 07:00:36 PM'
p59
F42.20407
F-71.23775
tp60
a(I1
S'09/25/2015 07:01:39 PM'
p61
F42.204
F-71.23832
tp62
a(I1
S'09/25/2015 07:02:41 PM'
p63
F42.20398
F-71.23825
tp64
a(I1
S'09/25/2015 07:03:41 PM'
p65
F42.20448
F-71.23806
tp66
a(I1
S'09/25/2015 07:05:44 PM'
p67
F42.20386
F-71.23829
tp68
a(I1
S'09/25/2015 07:06:45 PM'
p69
F42.20401
F-71.23824
tp70
a(I1
S'09/25/2015 07:07:47 PM'
p71
F42.20389
F-71.2382
tp72
a(I1
S'09/25/2015 07:08:50 PM'
p73
F42.20379
F-71.2379
tp74
a(I1
S'09/25/2015 07:10:51 PM'
p75
F42.20377
F-71.238
tp76
a(I1
S'09/25/2015 07:11:53 PM'
p77
F42.20385
F-71.23809
tp78
a(I1
S'09/25/2015 07:12:53 PM'
p79
F42.20391
F-71.23818
tp80
a(I1
S'09/25/2015 07:15:55 PM'
p81
F42.20398
F-71.23824
tp82
a(I1
S'09/25/2015 07:34:12 PM'
p83
F42.20395
F-71.23819
tp84
a(I1
S'09/25/2015 09:01:10 PM'
p85
F42.20431
F-71.23876
tp86
a(I1
S'09/25/2015 09:03:11 PM'
p87
F42.20393
F-71.23785
tp88
a(I1
S'09/25/2015 09:05:11 PM'
p89
F42.20394
F-71.23815
tp90
a(I1
S'09/25/2015 09:09:11 PM'
p91
F42.20395
F-71.23809
tp92
a(I1
S'09/25/2015 09:12:10 PM'
p93
F42.20396
F-71.23803
tp94
a(I1
S'09/25/2015 09:13:12 PM'
p95
F42.20396
F-71.2381
tp96
a(I1
S'09/25/2015 09:15:12 PM'
p97
F42.20396
F-71.23804
tp98
a(I1
S'09/25/2015 09:18:11 PM'
p99
F42.20397
F-71.2381
tp100
a(I1
S'09/25/2015 09:55:17 PM'
p101
F42.20398
F-71.23817
tp102
a(I1
S'09/25/2015 10:38:24 PM'
p103
F42.20399
F-71.23823
tp104
a(I2
S'09/26/2015 08:32:05 AM'
p105
F42.20398
F-71.23813
tp106
a(I2
S'09/26/2015 08:32:12 AM'
p107
F42.20405
F-71.23805
tp108
a(I2
S'09/26/2015 08:32:19 AM'
p109
F42.20415
F-71.23801
tp110
a(I2
S'09/26/2015 08:32:27 AM'
p111
F42.20424
F-71.23796
tp112
a(I2
S'09/26/2015 08:32:34 AM'
p113
F42.20433
F-71.23792
tp114
a(I2
S'09/26/2015 08:32:41 AM'
p115
F42.20441
F-71.23787
tp116
a(I2
S'09/26/2015 08:32:47 AM'
p117
F42.2045
F-71.23782
tp118
a(I2
S'09/26/2015 08:32:54 AM'
p119
F42.20457
F-71.23773
tp120
a(I2
S'09/26/2015 08:33:01 AM'
p121
F42.2046
F-71.23761
tp122
a(I2
S'09/26/2015 08:33:07 AM'
p123
F42.20459
F-71.23748
tp124
a(I2
S'09/26/2015 08:33:13 AM'
p125
F42.20457
F-71.23736
tp126
a(I2
S'09/26/2015 08:33:20 AM'
p127
F42.20455
F-71.23723
tp128
a(I2
S'09/26/2015 08:33:27 AM'
p129
F42.20455
F-71.23711
tp130
a(I2
S'09/26/2015 08:33:34 AM'
p131
F42.20456
F-71.23697
tp132
a(I2
S'09/26/2015 08:33:41 AM'
p133
F42.20455
F-71.23685
tp134
a(I2
S'09/26/2015 08:33:48 AM'
p135
F42.20453
F-71.23673
tp136
a(I2
S'09/26/2015 08:33:56 AM'
p137
F42.20454
F-71.23661
tp138
a(I2
S'09/26/2015 08:34:03 AM'
p139
F42.20451
F-71.23649
tp140
a(I2
S'09/26/2015 08:34:09 AM'
p141
F42.20449
F-71.23637
tp142
a(I2
S'09/26/2015 08:34:16 AM'
p143
F42.20448
F-71.23624
tp144
a(I2
S'09/26/2015 08:34:22 AM'
p145
F42.20447
F-71.23611
tp146
a(I2
S'09/26/2015 08:34:28 AM'
p147
F42.20446
F-71.23598
tp148
a(I2
S'09/26/2015 08:34:34 AM'
p149
F42.20442
F-71.23585
tp150
a(I2
S'09/26/2015 08:34:40 AM'
p151
F42.20441
F-71.23572
tp152
a(I2
S'09/26/2015 08:34:46 AM'
p153
F42.20442
F-71.2356
tp154
a(I2
S'09/26/2015 08:34:52 AM'
p155
F42.20439
F-71.23548
tp156
a(I2
S'09/26/2015 08:34:58 AM'
p157
F42.20435
F-71.23534
tp158
a(I2
S'09/26/2015 08:35:04 AM'
p159
F42.20433
F-71.23523
tp160
a(I2
S'09/26/2015 08:35:16 AM'
p161
F42.20429
F-71.23512
tp162
a(I2
S'09/26/2015 08:35:23 AM'
p163
F42.20425
F-71.23499
tp164
a(I2
S'09/26/2015 08:35:28 AM'
p165
F42.20424
F-71.23486
tp166
a(I2
S'09/26/2015 08:35:33 AM'
p167
F42.20421
F-71.23473
tp168
a(I2
S'09/26/2015 08:35:38 AM'
p169
F42.2042
F-71.23461
tp170
a(I2
S'09/26/2015 08:35:45 AM'
p171
F42.20412
F-71.23454
tp172
a(I2
S'09/26/2015 08:35:52 AM'
p173
F42.20402
F-71.23456
tp174
a(I2
S'09/26/2015 08:35:59 AM'
p175
F42.20392
F-71.23461
tp176
a(I2
S'09/26/2015 08:36:05 AM'
p177
F42.20384
F-71.23468
tp178
a(I2
S'09/26/2015 08:36:11 AM'
p179
F42.20376
F-71.23476
tp180
a(I2
S'09/26/2015 08:36:18 AM'
p181
F42.20368
F-71.23483
tp182
a(I2
S'09/26/2015 08:36:25 AM'
p183
F42.20359
F-71.23489
tp184
a(I2
S'09/26/2015 08:36:32 AM'
p185
F42.2035
F-71.23496
tp186
a(I2
S'09/26/2015 08:36:39 AM'
p187
F42.20341
F-71.23502
tp188
a(I2
S'09/26/2015 08:36:46 AM'
p189
F42.20333
F-71.2351
tp190
a(I2
S'09/26/2015 08:36:54 AM'
p191
F42.20331
F-71.23524
tp192
a(I2
S'09/26/2015 08:37:01 AM'
p193
F42.20333
F-71.23536
tp194
a(I2
S'09/26/2015 08:37:08 AM'
p195
F42.20336
F-71.2355
tp196
a(I2
S'09/26/2015 08:37:14 AM'
p197
F42.20339
F-71.23561
tp198
a(I2
S'09/26/2015 08:37:21 AM'
p199
F42.20342
F-71.23574
tp200
a(I2
S'09/26/2015 08:37:28 AM'
p201
F42.20345
F-71.23586
tp202
a(I2
S'09/26/2015 08:37:35 AM'
p203
F42.20348
F-71.23598
tp204
a(I2
S'09/26/2015 08:37:43 AM'
p205
F42.2035
F-71.2361
tp206
a(I2
S'09/26/2015 08:37:50 AM'
p207
F42.20352
F-71.23623
tp208
a(I2
S'09/26/2015 08:37:57 AM'
p209
F42.20352
F-71.23637
tp210
a(I2
S'09/26/2015 08:38:03 AM'
p211
F42.20354
F-71.23649
tp212
a(I2
S'09/26/2015 08:38:10 AM'
p213
F42.20356
F-71.23662
tp214
a(I2
S'09/26/2015 08:38:17 AM'
p215
F42.20359
F-71.23675
tp216
a(I2
S'09/26/2015 08:38:24 AM'
p217
F42.20363
F-71.23688
tp218
a(I2
S'09/26/2015 08:38:31 AM'
p219
F42.20365
F-71.237
tp220
a(I2
S'09/26/2015 08:38:38 AM'
p221
F42.20367
F-71.23713
tp222
a(I2
S'09/26/2015 08:38:45 AM'
p223
F42.20371
F-71.23726
tp224
a(I2
S'09/26/2015 08:38:51 AM'
p225
F42.20373
F-71.23738
tp226
a(I2
S'09/26/2015 08:38:58 AM'
p227
F42.20375
F-71.23751
tp228
a(I2
S'09/26/2015 08:39:05 AM'
p229
F42.20379
F-71.23763
tp230
a(I2
S'09/26/2015 08:39:12 AM'
p231
F42.20382
F-71.23775
tp232
a(I2
S'09/26/2015 08:39:20 AM'
p233
F42.20384
F-71.23788
tp234
a(I2
S'09/26/2015 08:39:28 AM'
p235
F42.20388
F-71.23801
tp236
a(I2
S'09/26/2015 08:39:36 AM'
p237
F42.20396
F-71.2381
tp238
a(I2
S'09/26/2015 08:39:59 AM'
p239
F42.20397
F-71.23822
tp240
a(I2
S'09/26/2015 08:41:10 AM'
p241
F42.20398
F-71.23822
tp242
a(I3
S'09/26/2015 09:27:05 AM'
p243
F42.20403
F-71.23812
tp244
a(I3
S'09/26/2015 09:28:57 AM'
p245
F42.20406
F-71.23799
tp246
a(I3
S'09/26/2015 09:29:01 AM'
p247
F42.20412
F-71.23788
tp248
a(I3
S'09/26/2015 09:29:12 AM'
p249
F42.20458
F-71.23774
tp250
a(I3
S'09/26/2015 09:29:23 AM'
p251
F42.20495
F-71.23859
tp252
a(I3
S'09/26/2015 09:29:30 AM'
p253
F42.20543
F-71.23904
tp254
a(I3
S'09/26/2015 09:29:40 AM'
p255
F42.2061
F-71.23967
tp256
a(I3
S'09/26/2015 09:30:02 AM'
p257
F42.20621
F-71.2397
tp258
a(I3
S'09/26/2015 09:30:10 AM'
p259
F42.20671
F-71.23898
tp260
a(I3
S'09/26/2015 09:30:20 AM'
p261
F42.2075
F-71.23781
tp262
a(I3
S'09/26/2015 09:30:30 AM'
p263
F42.20837
F-71.23687
tp264
a(I3
S'09/26/2015 09:30:41 AM'
p265
F42.20939
F-71.23567
tp266
a(I3
S'09/26/2015 09:30:50 AM'
p267
F42.21018
F-71.23437
tp268
a(I3
S'09/26/2015 09:31:01 AM'
p269
F42.21122
F-71.23263
tp270
a(I3
S'09/26/2015 09:31:10 AM'
p271
F42.21204
F-71.2312
tp272
a(I3
S'09/26/2015 09:31:20 AM'
p273
F42.21318
F-71.22972
tp274
a(I3
S'09/26/2015 09:31:30 AM'
p275
F42.2144
F-71.22842
tp276
a(I3
S'09/26/2015 09:31:40 AM'
p277
F42.21574
F-71.2273
tp278
a(I3
S'09/26/2015 09:31:50 AM'
p279
F42.21687
F-71.22616
tp280
a(I3
S'09/26/2015 09:32:01 AM'
p281
F42.21729
F-71.22518
tp282
a(I3
S'09/26/2015 09:32:10 AM'
p283
F42.21758
F-71.22449
tp284
a(I3
S'09/26/2015 09:32:22 AM'
p285
F42.21806
F-71.22373
tp286
a(I3
S'09/26/2015 09:32:30 AM'
p287
F42.21857
F-71.22336
tp288
a(I3
S'09/26/2015 09:32:40 AM'
p289
F42.21959
F-71.22337
tp290
a(I3
S'09/26/2015 09:32:54 AM'
p291
F42.22004
F-71.22342
tp292
a(I3
S'09/26/2015 09:33:02 AM'
p293
F42.22036
F-71.22338
tp294
a(I3
S'09/26/2015 09:33:11 AM'
p295
F42.22068
F-71.22339
tp296
a(I3
S'09/26/2015 09:33:21 AM'
p297
F42.22093
F-71.22339
tp298
a(I3
S'09/26/2015 09:33:31 AM'
p299
F42.22161
F-71.22333
tp300
a(I3
S'09/26/2015 09:33:42 AM'
p301
F42.2218
F-71.22332
tp302
a(I3
S'09/26/2015 09:33:51 AM'
p303
F42.22217
F-71.22323
tp304
a(I3
S'09/26/2015 09:34:00 AM'
p305
F42.22257
F-71.22313
tp306
a(I3
S'09/26/2015 09:34:13 AM'
p307
F42.22277
F-71.22309
tp308
a(I3
S'09/26/2015 09:34:21 AM'
p309
F42.22312
F-71.22305
tp310
a(I3
S'09/26/2015 09:34:31 AM'
p311
F42.22346
F-71.22303
tp312
a(I3
S'09/26/2015 09:35:08 AM'
p313
F42.22366
F-71.22295
tp314
a(I3
S'09/26/2015 09:35:10 AM'
p315
F42.22379
F-71.22294
tp316
a(I3
S'09/26/2015 09:35:20 AM'
p317
F42.22465
F-71.22269
tp318
a(I3
S'09/26/2015 09:35:30 AM'
p319
F42.2257
F-71.22233
tp320
a(I3
S'09/26/2015 09:35:40 AM'
p321
F42.22695
F-71.22195
tp322
a(I3
S'09/26/2015 09:35:50 AM'
p323
F42.22834
F-71.22144
tp324
a(I3
S'09/26/2015 09:36:00 AM'
p325
F42.2298
F-71.22094
tp326
a(I3
S'09/26/2015 09:36:10 AM'
p327
F42.23133
F-71.22028
tp328
a(I3
S'09/26/2015 09:36:20 AM'
p329
F42.23286
F-71.21941
tp330
a(I3
S'09/26/2015 09:36:30 AM'
p331
F42.23411
F-71.21884
tp332
a(I3
S'09/26/2015 09:36:40 AM'
p333
F42.23554
F-71.21833
tp334
a(I3
S'09/26/2015 09:36:50 AM'
p335
F42.23693
F-71.21735
tp336
a(I3
S'09/26/2015 09:37:00 AM'
p337
F42.23825
F-71.21646
tp338
a(I3
S'09/26/2015 09:37:10 AM'
p339
F42.23926
F-71.215
tp340
a(I3
S'09/26/2015 09:37:20 AM'
p341
F42.24034
F-71.21337
tp342
a(I3
S'09/26/2015 09:37:40 AM'
p343
F42.241
F-71.21124
tp344
a(I3
S'09/26/2015 09:37:50 AM'
p345
F42.2414
F-71.20989
tp346
a(I3
S'09/26/2015 09:38:00 AM'
p347
F42.24206
F-71.20811
tp348
a(I3
S'09/26/2015 09:38:10 AM'
p349
F42.24275
F-71.20627
tp350
a(I3
S'09/26/2015 09:38:20 AM'
p351
F42.24354
F-71.20433
tp352
a(I3
S'09/26/2015 09:38:30 AM'
p353
F42.24431
F-71.2023
tp354
a(I3
S'09/26/2015 09:38:40 AM'
p355
F42.24494
F-71.20032
tp356
a(I3
S'09/26/2015 09:38:50 AM'
p357
F42.24549
F-71.19838
tp358
a(I3
S'09/26/2015 09:39:00 AM'
p359
F42.24624
F-71.19647
tp360
a(I3
S'09/26/2015 09:39:10 AM'
p361
F42.24714
F-71.19445
tp362
a(I3
S'09/26/2015 09:39:20 AM'
p363
F42.24775
F-71.19233
tp364
a(I3
S'09/26/2015 09:39:30 AM'
p365
F42.24862
F-71.19064
tp366
a(I3
S'09/26/2015 09:39:40 AM'
p367
F42.2496
F-71.18907
tp368
a(I3
S'09/26/2015 09:39:50 AM'
p369
F42.25064
F-71.18738
tp370
a(I3
S'09/26/2015 09:40:00 AM'
p371
F42.25152
F-71.1858
tp372
a(I3
S'09/26/2015 09:40:10 AM'
p373
F42.25187
F-71.18485
tp374
a(I3
S'09/26/2015 09:40:20 AM'
p375
F42.25228
F-71.18401
tp376
a(I3
S'09/26/2015 09:40:30 AM'
p377
F42.25289
F-71.18318
tp378
a(I3
S'09/26/2015 09:40:40 AM'
p379
F42.25345
F-71.18225
tp380
a(I3
S'09/26/2015 09:40:50 AM'
p381
F42.2539
F-71.18124
tp382
a(I3
S'09/26/2015 09:41:01 AM'
p383
F42.25486
F-71.18048
tp384
a(I3
S'09/26/2015 09:41:10 AM'
p385
F42.25566
F-71.18013
tp386
a(I3
S'09/26/2015 09:41:21 AM'
p387
F42.2567
F-71.17963
tp388
a(I3
S'09/26/2015 09:41:31 AM'
p389
F42.25747
F-71.17921
tp390
a(I3
S'09/26/2015 09:41:40 AM'
p391
F42.25815
F-71.17889
tp392
a(I3
S'09/26/2015 09:41:51 AM'
p393
F42.25898
F-71.17844
tp394
a(I3
S'09/26/2015 09:42:00 AM'
p395
F42.25952
F-71.17823
tp396
a(I3
S'09/26/2015 09:42:11 AM'
p397
F42.26037
F-71.17805
tp398
a(I3
S'09/26/2015 09:42:21 AM'
p399
F42.26106
F-71.17786
tp400
a(I3
S'09/26/2015 09:42:31 AM'
p401
F42.26183
F-71.17776
tp402
a(I4
S'09/25/2015 06:01:07 PM'
p403
F42.29408
F-71.30208
tp404
a(I4
S'09/25/2015 06:01:55 PM'
p405
F42.29405
F-71.30114
tp406
a(I4
S'09/25/2015 06:02:47 PM'
p407
F42.29405
F-71.30029
tp408
a(I4
S'09/25/2015 06:03:42 PM'
p409
F42.2948
F-71.29971
tp410
a(I4
S'09/25/2015 06:04:53 PM'
p411
F42.2953
F-71.29925
tp412
a(I4
S'09/25/2015 06:06:09 PM'
p413
F42.29547
F-71.30099
tp414
a(I4
S'09/25/2015 06:07:13 PM'
p415
F42.29549
F-71.30237
tp416
a(I4
S'09/25/2015 06:08:25 PM'
p417
F42.29501
F-71.30384
tp418
a(I4
S'09/25/2015 06:09:41 PM'
p419
F42.29493
F-71.30498
tp420
a(I5
S'09/27/2015 05:39:31 PM'
p421
F42.20417
F-71.23804
tp422
a(I5
S'09/27/2015 05:40:31 PM'
p423
F42.20457
F-71.23657
tp424
a(I5
S'09/27/2015 05:41:01 PM'
p425
F42.20434
F-71.23506
tp426
a(I5
S'09/27/2015 05:41:35 PM'
p427
F42.20478
F-71.23385
tp428
a(I5
S'09/27/2015 05:41:56 PM'
p429
F42.20568
F-71.23345
tp430
a(I5
S'09/27/2015 05:42:27 PM'
p431
F42.20609
F-71.23211
tp432
a(I5
S'09/27/2015 05:43:10 PM'
p433
F42.20549
F-71.23119
tp434
a(I5
S'09/27/2015 05:43:29 PM'
p435
F42.20455
F-71.23127
tp436
a(I5
S'09/27/2015 05:43:49 PM'
p437
F42.2035
F-71.23155
tp438
a(I5
S'09/27/2015 05:44:19 PM'
p439
F42.20217
F-71.23172
tp440
a(I5
S'09/27/2015 05:44:51 PM'
p441
F42.20139
F-71.23238
tp442
a(I5
S'09/27/2015 05:45:08 PM'
p443
F42.20148
F-71.23362
tp444
a(I5
S'09/27/2015 05:45:31 PM'
p445
F42.20072
F-71.23429
tp446
a(I5
S'09/27/2015 05:46:01 PM'
p447
F42.20028
F-71.23536
tp448
a(I5
S'09/27/2015 05:46:37 PM'
p449
F42.19946
F-71.23592
tp450
a(I5
S'09/27/2015 05:47:08 PM'
p451
F42.19889
F-71.23691
tp452
a(I5
S'09/27/2015 05:47:38 PM'
p453
F42.19863
F-71.23813
tp454
a(I5
S'09/27/2015 05:48:10 PM'
p455
F42.19757
F-71.23806
tp456
a(I5
S'09/27/2015 05:48:30 PM'
p457
F42.19659
F-71.23863
tp458
a(I5
S'09/27/2015 05:49:00 PM'
p459
F42.19549
F-71.23887
tp460
a(I5
S'09/27/2015 05:49:23 PM'
p461
F42.19458
F-71.23862
tp462
a(I5
S'09/27/2015 05:49:53 PM'
p463
F42.19378
F-71.23797
tp464
a(I5
S'09/27/2015 05:50:13 PM'
p465
F42.19343
F-71.2368
tp466
a(I5
S'09/27/2015 05:50:34 PM'
p467
F42.1925
F-71.2369
tp468
a(I5
S'09/27/2015 05:51:03 PM'
p469
F42.19125
F-71.23647
tp470
a(I5
S'09/27/2015 05:51:35 PM'
p471
F42.19008
F-71.2371
tp472
a(I5
S'09/27/2015 05:52:16 PM'
p473
F42.18914
F-71.23675
tp474
a(I5
S'09/27/2015 05:52:47 PM'
p475
F42.18783
F-71.2362
tp476
a(I5
S'09/27/2015 05:53:07 PM'
p477
F42.18655
F-71.23632
tp478
a(I5
S'09/27/2015 05:53:48 PM'
p479
F42.18598
F-71.23521
tp480
a(I5
S'09/27/2015 05:54:19 PM'
p481
F42.18505
F-71.23462
tp482
a(I5
S'09/27/2015 05:54:48 PM'
p483
F42.18396
F-71.23465
tp484
a(I5
S'09/27/2015 05:56:32 PM'
p485
F42.18516
F-71.23464
tp486
a(I5
S'09/27/2015 05:57:03 PM'
p487
F42.1859
F-71.23553
tp488
a(I5
S'09/27/2015 05:57:24 PM'
p489
F42.18578
F-71.23689
tp490
a(I5
S'09/27/2015 05:57:54 PM'
p491
F42.18646
F-71.23812
tp492
a(I5
S'09/27/2015 05:58:25 PM'
p493
F42.18753
F-71.23766
tp494
a(I5
S'09/27/2015 05:58:45 PM'
p495
F42.18846
F-71.23836
tp496
a(I5
S'09/27/2015 05:59:16 PM'
p497
F42.18964
F-71.2384
tp498
a(I5
S'09/27/2015 05:59:46 PM'
p499
F42.19004
F-71.23705
tp500
a(I5
S'09/27/2015 06:00:07 PM'
p501
F42.1908
F-71.2363
tp502
a(I5
S'09/27/2015 06:00:37 PM'
p503
F42.19194
F-71.23651
tp504
a(I5
S'09/27/2015 06:00:58 PM'
p505
F42.19283
F-71.23682
tp506
a(I5
S'09/27/2015 06:01:39 PM'
p507
F42.19365
F-71.2379
tp508
a(I5
S'09/27/2015 06:02:10 PM'
p509
F42.19346
F-71.23924
tp510
a(I5
S'09/27/2015 06:02:41 PM'
p511
F42.19357
F-71.24075
tp512
a(I5
S'09/27/2015 06:03:11 PM'
p513
F42.1945
F-71.24153
tp514
a(I5
S'09/27/2015 06:03:32 PM'
p515
F42.19546
F-71.24141
tp516
a(I5
S'09/27/2015 06:03:52 PM'
p517
F42.19633
F-71.24108
tp518
a(I5
S'09/27/2015 06:04:23 PM'
p519
F42.19728
F-71.23995
tp520
a(I5
S'09/27/2015 06:05:03 PM'
p521
F42.19835
F-71.24009
tp522
a(I5
S'09/27/2015 06:05:34 PM'
p523
F42.19964
F-71.23988
tp524
a(I5
S'09/27/2015 06:06:05 PM'
p525
F42.20097
F-71.23974
tp526
a(I5
S'09/27/2015 06:06:26 PM'
p527
F42.20179
F-71.23909
tp528
a(I5
S'09/27/2015 06:06:57 PM'
p529
F42.20275
F-71.23918
tp530
a(I5
S'09/27/2015 06:07:27 PM'
p531
F42.20347
F-71.24039
tp532
a(I5
S'09/27/2015 06:07:58 PM'
p533
F42.20425
F-71.24165
tp534
a(I5
S'09/27/2015 06:08:28 PM'
p535
F42.20515
F-71.24104
tp536
a(I5
S'09/27/2015 06:08:58 PM'
p537
F42.20607
F-71.23975
tp538
a(I5
S'09/27/2015 06:09:18 PM'
p539
F42.20533
F-71.23906
tp540
a(I5
S'09/27/2015 06:09:49 PM'
p541
F42.20474
F-71.23781
tp542
a(I5
S'09/27/2015 06:10:19 PM'
p543
F42.20414
F-71.23802
tp544
a(I6
S'09/29/2015 03:18:56 PM'
p545
F42.29396
F-71.30256
tp546
a(I6
S'09/29/2015 03:30:14 PM'
p547
F42.2938
F-71.30128
tp548
a(I6
S'09/29/2015 03:31:57 PM'
p549
F42.29276
F-71.30063
tp550
a(I6
S'09/29/2015 03:32:14 PM'
p551
F42.29161
F-71.30172
tp552
a(I6
S'09/29/2015 03:32:39 PM'
p553
F42.29051
F-71.30115
tp554
a(I6
S'09/29/2015 03:32:59 PM'
p555
F42.28976
F-71.30036
tp556
a(I6
S'09/29/2015 03:33:20 PM'
p557
F42.29026
F-71.29919
tp558
a(I6
S'09/29/2015 03:33:39 PM'
p559
F42.28925
F-71.29771
tp560
a(I6
S'09/29/2015 03:33:49 PM'
p561
F42.28817
F-71.29633
tp562
a(I6
S'09/29/2015 03:34:01 PM'
p563
F42.28707
F-71.29485
tp564
a(I6
S'09/29/2015 03:34:19 PM'
p565
F42.28503
F-71.29203
tp566
a(I6
S'09/29/2015 03:34:31 PM'
p567
F42.28424
F-71.29035
tp568
a(I6
S'09/29/2015 03:34:41 PM'
p569
F42.28323
F-71.28919
tp570
a(I6
S'09/29/2015 03:34:52 PM'
p571
F42.28168
F-71.28819
tp572
a(I6
S'09/29/2015 03:35:11 PM'
p573
F42.27938
F-71.28763
tp574
a(I6
S'09/29/2015 03:35:22 PM'
p575
F42.27789
F-71.28749
tp576
a(I6
S'09/29/2015 03:35:32 PM'
p577
F42.27695
F-71.28782
tp578
a(I6
S'09/29/2015 03:35:51 PM'
p579
F42.27442
F-71.28737
tp580
a(I6
S'09/29/2015 03:36:01 PM'
p581
F42.273
F-71.28647
tp582
a(I6
S'09/29/2015 03:36:20 PM'
p583
F42.27085
F-71.28501
tp584
a(I6
S'09/29/2015 03:36:41 PM'
p585
F42.27066
F-71.28354
tp586
a(I6
S'09/29/2015 03:37:02 PM'
p587
F42.2695
F-71.27908
tp588
a(I6
S'09/29/2015 03:37:21 PM'
p589
F42.26921
F-71.27549
tp590
a(I6
S'09/29/2015 03:37:31 PM'
p591
F42.26857
F-71.27395
tp592
a(I6
S'09/29/2015 03:37:41 PM'
p593
F42.26802
F-71.27256
tp594
a(I6
S'09/29/2015 03:37:51 PM'
p595
F42.26768
F-71.27083
tp596
a(I6
S'09/29/2015 03:38:01 PM'
p597
F42.26706
F-71.2694
tp598
a(I6
S'09/29/2015 03:38:22 PM'
p599
F42.26617
F-71.26799
tp600
a(I6
S'09/29/2015 03:38:43 PM'
p601
F42.26386
F-71.26933
tp602
a(I6
S'09/29/2015 03:39:03 PM'
p603
F42.262
F-71.27029
tp604
a(I6
S'09/29/2015 03:39:22 PM'
p605
F42.26034
F-71.27037
tp606
a(I6
S'09/29/2015 03:39:32 PM'
p607
F42.25926
F-71.27082
tp608
a(I6
S'09/29/2015 03:39:43 PM'
p609
F42.25831
F-71.27203
tp610
a(I6
S'09/29/2015 03:40:02 PM'
p611
F42.25615
F-71.27183
tp612
a(I6
S'09/29/2015 03:40:13 PM'
p613
F42.25458
F-71.27185
tp614
a(I6
S'09/29/2015 03:40:34 PM'
p615
F42.25233
F-71.27395
tp616
a(I6
S'09/29/2015 03:40:55 PM'
p617
F42.24989
F-71.27564
tp618
a(I6
S'09/29/2015 03:41:14 PM'
p619
F42.24769
F-71.27746
tp620
a(I6
S'09/29/2015 03:41:33 PM'
p621
F42.24696
F-71.27827
tp622
a(I6
S'09/29/2015 03:41:43 PM'
p623
F42.24625
F-71.27903
tp624
a(I6
S'09/29/2015 03:41:54 PM'
p625
F42.24534
F-71.27957
tp626
a(I6
S'09/29/2015 03:42:25 PM'
p627
F42.24422
F-71.27983
tp628
a(I6
S'09/29/2015 03:42:36 PM'
p629
F42.24306
F-71.27905
tp630
a(I6
S'09/29/2015 03:42:55 PM'
p631
F42.24038
F-71.2773
tp632
a(I6
S'09/29/2015 03:43:07 PM'
p633
F42.23882
F-71.27621
tp634
a(I6
S'09/29/2015 03:43:26 PM'
p635
F42.23603
F-71.27641
tp636
a(I6
S'09/29/2015 03:43:37 PM'
p637
F42.2344
F-71.27511
tp638
a(I6
S'09/29/2015 03:43:47 PM'
p639
F42.23329
F-71.27413
tp640
a(I6
S'09/29/2015 03:44:00 PM'
p641
F42.23074
F-71.27274
tp642
a(I6
S'09/29/2015 03:44:19 PM'
p643
F42.22779
F-71.27146
tp644
a(I6
S'09/29/2015 03:44:40 PM'
p645
F42.22544
F-71.27056
tp646
a(I6
S'09/29/2015 03:44:51 PM'
p647
F42.22342
F-71.27036
tp648
a(I6
S'09/29/2015 03:45:11 PM'
p649
F42.22214
F-71.26634
tp650
a(I6
S'09/29/2015 03:45:28 PM'
p651
F42.22065
F-71.26362
tp652
a(I6
S'09/29/2015 03:45:38 PM'
p653
F42.21899
F-71.26379
tp654
a(I6
S'09/29/2015 03:45:51 PM'
p655
F42.21683
F-71.26385
tp656
a(I6
S'09/29/2015 03:46:08 PM'
p657
F42.2141
F-71.26317
tp658
a(I6
S'09/29/2015 03:46:20 PM'
p659
F42.21247
F-71.26261
tp660
a(I6
S'09/29/2015 03:46:29 PM'
p661
F42.21149
F-71.26172
tp662
a(I6
S'09/29/2015 03:46:49 PM'
p663
F42.21051
F-71.26049
tp664
a(I6
S'09/29/2015 03:47:08 PM'
p665
F42.20763
F-71.26077
tp666
a(I6
S'09/29/2015 03:47:19 PM'
p667
F42.20605
F-71.26044
tp668
a(I6
S'09/29/2015 03:47:29 PM'
p669
F42.20484
F-71.25967
tp670
a(I6
S'09/29/2015 03:47:49 PM'
p671
F42.20373
F-71.25823
tp672
a(I6
S'09/29/2015 03:48:10 PM'
p673
F42.20283
F-71.25393
tp674
a(I6
S'09/29/2015 03:48:20 PM'
p675
F42.20261
F-71.25169
tp676
a(I6
S'09/29/2015 03:48:39 PM'
p677
F42.20125
F-71.24833
tp678
a(I6
S'09/29/2015 03:48:49 PM'
p679
F42.20152
F-71.24622
tp680
a(I6
S'09/29/2015 03:49:10 PM'
p681
F42.204
F-71.24289
tp682
a(I6
S'09/29/2015 03:49:40 PM'
p683
F42.20518
F-71.24117
tp684
a(I6
S'09/29/2015 03:50:00 PM'
p685
F42.20592
F-71.2388
tp686
a(I6
S'09/29/2015 03:50:19 PM'
p687
F42.20449
F-71.23774
tp688
a(I7
S'09/29/2015 03:52:24 PM'
p689
F42.29192
F-71.303
tp690
a(I7
S'09/29/2015 03:54:27 PM'
p691
F42.2918
F-71.30425
tp692
a(I7
S'09/29/2015 03:56:07 PM'
p693
F42.29218
F-71.3055
tp694
a(I7
S'09/29/2015 04:01:31 PM'
p695
F42.29156
F-71.30643
tp696
a(I7
S'09/29/2015 05:24:21 PM'
p697
F42.2918
F-71.30587
tp698
a(I7
S'09/29/2015 05:26:13 PM'
p699
F42.29209
F-71.3047
tp700
a(I7
S'09/29/2015 05:27:43 PM'
p701
F42.29171
F-71.30356
tp702
a(I7
S'09/29/2015 05:29:34 PM'
p703
F42.29164
F-71.30225
tp704
a(I7
S'09/29/2015 05:31:24 PM'
p705
F42.29106
F-71.30122
tp706
a(I8
S'09/29/2015 05:35:30 PM'
p707
F42.20403
F-71.23852
tp708
a(I8
S'09/29/2015 05:36:53 PM'
p709
F42.20501
F-71.23873
tp710
a(I8
S'09/29/2015 05:37:03 PM'
p711
F42.20602
F-71.23949
tp712
a(I8
S'09/29/2015 05:37:23 PM'
p713
F42.20722
F-71.23832
tp714
a(I8
S'09/29/2015 05:37:33 PM'
p715
F42.20822
F-71.23695
tp716
a(I8
S'09/29/2015 05:37:53 PM'
p717
F42.21022
F-71.23443
tp718
a(I8
S'09/29/2015 05:38:12 PM'
p719
F42.212
F-71.231
tp720
a(I8
S'09/29/2015 05:38:33 PM'
p721
F42.21495
F-71.22791
tp722
a(I8
S'09/29/2015 05:38:44 PM'
p723
F42.2165
F-71.22652
tp724
a(I8
S'09/29/2015 05:39:04 PM'
p725
F42.21819
F-71.22328
tp726
a(I8
S'09/29/2015 05:39:15 PM'
p727
F42.21992
F-71.22347
tp728
a(I8
S'09/29/2015 05:39:34 PM'
p729
F42.22288
F-71.22316
tp730
a(I8
S'09/29/2015 05:39:45 PM'
p731
F42.22431
F-71.22268
tp732
a(I8
S'09/29/2015 05:40:06 PM'
p733
F42.22486
F-71.22102
tp734
a(I8
S'09/29/2015 05:40:25 PM'
p735
F42.22389
F-71.21689
tp736
a(I8
S'09/29/2015 05:40:36 PM'
p737
F42.22286
F-71.21463
tp738
a(I8
S'09/29/2015 05:40:58 PM'
p739
F42.22165
F-71.20994
tp740
a(I8
S'09/29/2015 05:41:18 PM'
p741
F42.22101
F-71.20521
tp742
a(I8
S'09/29/2015 05:41:39 PM'
p743
F42.22123
F-71.20046
tp744
a(I8
S'09/29/2015 05:42:00 PM'
p745
F42.22181
F-71.19623
tp746
a(I8
S'09/29/2015 05:42:19 PM'
p747
F42.22345
F-71.19287
tp748
a(I8
S'09/29/2015 05:42:39 PM'
p749
F42.22589
F-71.19089
tp750
a(I8
S'09/29/2015 05:42:49 PM'
p751
F42.22678
F-71.19041
tp752
a(I8
S'09/29/2015 05:43:50 PM'
p753
F42.22767
F-71.1894
tp754
a(I8
S'09/29/2015 05:44:02 PM'
p755
F42.22831
F-71.18762
tp756
a(I8
S'09/29/2015 05:44:12 PM'
p757
F42.22859
F-71.18617
tp758
a(I8
S'09/29/2015 05:44:30 PM'
p759
F42.22696
F-71.18647
tp760
a(I8
S'09/29/2015 05:44:42 PM'
p761
F42.22543
F-71.18699
tp762
a(I8
S'09/29/2015 05:44:53 PM'
p763
F42.22399
F-71.18726
tp764
a(I8
S'09/29/2015 05:45:12 PM'
p765
F42.22168
F-71.18775
tp766
a(I8
S'09/29/2015 05:45:23 PM'
p767
F42.22071
F-71.18777
tp768
a(I8
S'09/29/2015 05:45:53 PM'
p769
F42.21954
F-71.18806
tp770
a(I8
S'09/29/2015 05:47:02 PM'
p771
F42.21831
F-71.18833
tp772
a(I8
S'09/29/2015 05:47:23 PM'
p773
F42.21733
F-71.1891
tp774
a(I8
S'09/29/2015 05:47:52 PM'
p775
F42.21634
F-71.18925
tp776
a(I8
S'09/29/2015 05:48:13 PM'
p777
F42.2152
F-71.18942
tp778
a(I8
S'09/29/2015 05:48:52 PM'
p779
F42.21442
F-71.19011
tp780
a(I8
S'09/29/2015 05:49:13 PM'
p781
F42.21351
F-71.19165
tp782
a(I8
S'09/29/2015 05:49:33 PM'
p783
F42.2139
F-71.19487
tp784
a(I8
S'09/29/2015 05:49:43 PM'
p785
F42.21384
F-71.19663
tp786
a(I8
S'09/29/2015 05:49:53 PM'
p787
F42.21349
F-71.19835
tp788
a(I8
S'09/29/2015 05:50:13 PM'
p789
F42.21559
F-71.20067
tp790
a(I8
S'09/29/2015 05:50:24 PM'
p791
F42.21711
F-71.20112
tp792
a(I8
S'09/29/2015 05:50:42 PM'
p793
F42.21774
F-71.20382
tp794
a(I8
S'09/29/2015 05:50:52 PM'
p795
F42.21714
F-71.20537
tp796
a(I8
S'09/29/2015 05:51:11 PM'
p797
F42.21603
F-71.20803
tp798
a(I8
S'09/29/2015 05:51:21 PM'
p799
F42.21539
F-71.20958
tp800
a(I8
S'09/29/2015 05:51:33 PM'
p801
F42.21467
F-71.21061
tp802
a(I8
S'09/29/2015 05:52:23 PM'
p803
F42.21415
F-71.21204
tp804
a(I8
S'09/29/2015 05:53:04 PM'
p805
F42.21233
F-71.21395
tp806
a(I8
S'09/29/2015 05:53:15 PM'
p807
F42.21128
F-71.21554
tp808
a(I8
S'09/29/2015 05:53:34 PM'
p809
F42.2098
F-71.21844
tp810
a(I8
S'09/29/2015 05:53:54 PM'
p811
F42.20934
F-71.2223
tp812
a(I8
S'09/29/2015 05:54:17 PM'
p813
F42.20861
F-71.22549
tp814
a(I8
S'09/29/2015 05:54:33 PM'
p815
F42.20958
F-71.22619
tp816
a(I8
S'09/29/2015 05:54:54 PM'
p817
F42.20856
F-71.22756
tp818
a(I8
S'09/29/2015 05:55:14 PM'
p819
F42.20953
F-71.2289
tp820
a(I8
S'09/29/2015 05:55:33 PM'
p821
F42.21078
F-71.22922
tp822
a(I8
S'09/29/2015 05:55:43 PM'
p823
F42.21164
F-71.22862
tp824
a(I8
S'09/29/2015 05:55:54 PM'
p825
F42.21295
F-71.22858
tp826
a(I8
S'09/29/2015 05:56:04 PM'
p827
F42.21381
F-71.22895
tp828
a(I8
S'09/29/2015 05:56:34 PM'
p829
F42.21526
F-71.22941
tp830
a(I8
S'09/29/2015 05:56:45 PM'
p831
F42.2161
F-71.22883
tp832
a(I8
S'09/29/2015 05:56:54 PM'
p833
F42.21691
F-71.22941
tp834
a(I8
S'09/29/2015 05:57:13 PM'
p835
F42.2176
F-71.2309
tp836
a(I8
S'09/29/2015 05:57:34 PM'
p837
F42.21899
F-71.23145
tp838
a(I8
S'09/29/2015 05:57:57 PM'
p839
F42.22011
F-71.22959
tp840
a(I8
S'09/29/2015 05:58:18 PM'
p841
F42.22208
F-71.22646
tp842
a(I8
S'09/29/2015 05:58:37 PM'
p843
F42.22266
F-71.22535
tp844
a(I8
S'09/29/2015 05:58:56 PM'
p845
F42.22341
F-71.22407
tp846
a(I7
S'09/29/2015 06:20:39 PM'
p847
F42.29256
F-71.30184
tp848
a(I7
S'09/29/2015 06:22:22 PM'
p849
F42.29339
F-71.30261
tp850
a(I7
S'09/29/2015 06:26:31 PM'
p851
F42.29449
F-71.30244
tp852
a(I7
S'09/29/2015 06:33:18 PM'
p853
F42.29374
F-71.30321
tp854
a(I7
S'09/29/2015 06:48:38 PM'
p855
F42.29393
F-71.30201
tp856
a(I7
S'09/29/2015 06:58:43 PM'
p857
F42.29391
F-71.30196
tp858
a.