(lp0
(I1
S'09/25/2015 06:23:01 PM'
p1
F42.2941
F-71.3019
tp2
a(I1
S'09/25/2015 06:23:10 PM'
p3
F42.29416
F-71.30194
tp4
a(I1
S'09/25/2015 06:24:12 PM'
p5
F42.29404
F-71.30106
tp6
a(I1
S'09/25/2015 06:24:37 PM'
p7
F42.29368
F-71.30111
tp8
a(I1
S'09/25/2015 06:25:42 PM'
p9
F42.294
F-71.3008
tp10
a(I1
S'09/25/2015 06:26:42 PM'
p11
F42.29168
F-71.30237
tp12
a(I1
S'09/25/2015 06:28:42 PM'
p13
F42.28266
F-71.28911
tp14
a(I1
S'09/25/2015 06:29:42 PM'
p15
F42.27411
F-71.28737
tp16
a(I1
S'09/25/2015 06:30:55 PM'
p17
F42.26958
F-71.27752
tp18
a(I1
S'09/25/2015 06:31:57 PM'
p19
F42.26529
F-71.26793
tp20
a(I1
S'09/25/2015 06:33:42 PM'
p21
F42.25189
F-71.27429
tp22
a(I1
S'09/25/2015 06:34:23 PM'
p23
F42.25155
F-71.2747
tp24
a(I1
S'09/25/2015 06:35:24 PM'
p25
F42.25036
F-71.27553
tp26
a(I1
S'09/25/2015 06:37:24 PM'
p27
F42.24733
F-71.27838
tp28
a(I1
S'09/25/2015 06:39:26 PM'
p29
F42.24079
F-71.27712
tp30
a(I1
S'09/25/2015 06:40:28 PM'
p31
F42.23173
F-71.2726
tp32
a(I1
S'09/25/2015 06:42:28 PM'
p33
F42.21638
F-71.26399
tp34
a(I1
S'09/25/2015 06:44:24 PM'
p35
F42.21448
F-71.24524
tp36
a(I1
S'09/25/2015 06:45:25 PM'
p37
F42.2176
F-71.2359
tp38
a(I1
S'09/25/2015 06:47:16 PM'
p39
F42.22381
F-71.22346
tp40
a(I1
S'09/25/2015 06:48:17 PM'
p41
F42.22442
F-71.22235
tp42
a(I1
S'09/25/2015 06:50:19 PM'
p43
F42.2242
F-71.22202
tp44
a(I1
S'09/25/2015 06:52:15 PM'
p45
F42.22413
F-71.22269
tp46
a(I1
S'09/25/2015 06:53:16 PM'
p47
F42.21895
F-71.22353
tp48
a(I1
S'09/25/2015 06:54:17 PM'
p49
F42.21204
F-71.2307
tp50
a(I1
S'09/25/2015 06:55:19 PM'
p51
F42.20628
F-71.23937
tp52
a(I1
S'09/25/2015 06:57:17 PM'
p53
F42.20365
F-71.23799
tp54
a(I1
S'09/25/2015 06:58:30 PM'
p55
F42.20424
F-71.23804
tp56
a(I1
S'09/25/2015 06:59:35 PM'
p57
F42.20475
F-71.23858
tp58
a(I1
S'09/25/2015 07:00:36 PM'
p59
F42.20407
F-71.23775
tp60
a(I1
S'09/25/2015 07:01:39 PM'
p61
F42.204
F-71.23832
tp62
a(I1
S'09/25/2015 07:02:41 PM'
p63
F42.20398
F-71.23825
tp64
a(I1
S'09/25/2015 07:03:41 PM'
p65
F42.20448
F-71.23806
tp66
a(I1
S'09/25/2015 07:05:44 PM'
p67
F42.20386
F-71.23829
tp68
a(I1
S'09/25/2015 07:06:45 PM'
p69
F42.20401
F-71.23824
tp70
a(I1
S'09/25/2015 07:07:47 PM'
p71
F42.20389
F-71.2382
tp72
a(I1
S'09/25/2015 07:08:50 PM'
p73
F42.20379
F-71.2379
tp74
a(I1
S'09/25/2015 07:10:51 PM'
p75
F42.20377
F-71.238
tp76
a(I1
S'09/25/2015 07:11:53 PM'
p77
F42.20385
F-71.23809
tp78
a(I1
S'09/25/2015 07:12:53 PM'
p79
F42.20391
F-71.23818
tp80
a(I1
S'09/25/2015 07:15:55 PM'
p81
F42.20398
F-71.23824
tp82
a(I1
S'09/25/2015 07:34:12 PM'
p83
F42.20395
F-71.23819
tp84
a(I1
S'09/25/2015 09:01:10 PM'
p85
F42.20431
F-71.23876
tp86
a(I1
S'09/25/2015 09:03:11 PM'
p87
F42.20393
F-71.23785
tp88
a(I1
S'09/25/2015 09:05:11 PM'
p89
F42.20394
F-71.23815
tp90
a(I1
S'09/25/2015 09:09:11 PM'
p91
F42.20395
F-71.23809
tp92
a(I1
S'09/25/2015 09:12:10 PM'
p93
F42.20396
F-71.23803
tp94
a(I1
S'09/25/2015 09:13:12 PM'
p95
F42.20396
F-71.2381
tp96
a(I1
S'09/25/2015 09:15:12 PM'
p97
F42.20396
F-71.23804
tp98
a(I1
S'09/25/2015 09:18:11 PM'
p99
F42.20397
F-71.2381
tp100
a(I1
S'09/25/2015 09:55:17 PM'
p101
F42.20398
F-71.23817
tp102
a(I1
S'09/25/2015 10:38:24 PM'
p103
F42.20399
F-71.23823
tp104
a.